; Function Attrs: mustprogress nounwind uwtable
define internal noundef i32 @_ZL14sort_dep_arg_3PP12ciBaseObjectS1_(ptr nocapture noundef readonly %0, ptr nocapture noundef readonly %1) #0 {
  br label %.lr.ph.i

.lr.ph.i:                                         ; preds = %.lr.ph.i, %2
  %indvars.iv.i = phi i64 [ 0, %2 ], [ %indvars.iv.next.i, %.lr.ph.i ]
  %3 = getelementptr inbounds ptr, ptr %0, i64 %indvars.iv.i
  %4 = load ptr, ptr %3, align 8
  %5 = tail call noundef i32 @_ZN12ciBaseObject5identEv(ptr noundef nonnull align 8 dereferenceable(12) %4) #18
  %6 = getelementptr inbounds ptr, ptr %1, i64 %indvars.iv.i
  %7 = load ptr, ptr %6, align 8
  %8 = tail call noundef i32 @_ZN12ciBaseObject5identEv(ptr noundef nonnull align 8 dereferenceable(12) %7) #18
  %.not.i = icmp ne i32 %5, %8
  %indvars.iv.next.i = add nuw nsw i64 %indvars.iv.i, 1
  %exitcond.not.i = icmp eq i64 %indvars.iv.next.i, 3
  %or.cond = select i1 %.not.i, i1 true, i1 %exitcond.not.i
  br i1 %or.cond, label %_ZL8sort_depPP12ciBaseObjectS1_i.exit, label %.lr.ph.i, !llvm.loop !18

_ZL8sort_depPP12ciBaseObjectS1_i.exit:            ; preds = %.lr.ph.i
  %9 = sub i32 %5, %8
  ret i32 %9
}